; Function Attrs: nounwind uwtable
define internal range(i32 1, 4) i32 @f_setvbuf(ptr noundef %0) #0 {
  %2 = tail call ptr @luaL_checkudata(ptr noundef %0, i32 noundef 1, ptr noundef nonnull @.str.5) #9
  %3 = load ptr, ptr %2, align 8, !tbaa !4
  %4 = icmp eq ptr %3, null
  br i1 %4, label %5, label %tofile.exit

5:                                                ; preds = %1
  %6 = tail call i32 (ptr, ptr, ...) @luaL_error(ptr noundef %0, ptr noundef nonnull @.str.16) #9
  %.pre.i = load ptr, ptr %2, align 8, !tbaa !4
  br label %tofile.exit

tofile.exit:                                      ; preds = %1, %5
  %7 = phi ptr [ %.pre.i, %5 ], [ %3, %1 ]
  %8 = tail call i32 @luaL_checkoption(ptr noundef %0, i32 noundef 2, ptr noundef null, ptr noundef nonnull @f_setvbuf.modenames) #9
  %9 = tail call i64 @luaL_optinteger(ptr noundef %0, i32 noundef 3, i64 noundef 8192) #9
  %10 = sext i32 %8 to i64
  %11 = getelementptr inbounds [3 x i32], ptr @f_setvbuf.mode, i64 0, i64 %10
  %12 = load i32, ptr %11, align 4, !tbaa !9
  %13 = tail call i32 @setvbuf(ptr noundef %7, ptr noundef null, i32 noundef %12, i64 noundef %9) #9
  %.not = icmp eq i32 %13, 0
  br i1 %.not, label %14, label %15

14:                                               ; preds = %tofile.exit
  tail call void @lua_pushboolean(ptr noundef %0, i32 noundef 1) #9
  br label %pushresult.exit

15:                                               ; preds = %tofile.exit
  %16 = tail call ptr @__errno_location() #10
  %17 = load i32, ptr %16, align 4, !tbaa !9
  tail call void @lua_pushnil(ptr noundef %0) #9
  %18 = tail call ptr @strerror(i32 noundef %17) #9
  %19 = tail call ptr (ptr, ptr, ...) @lua_pushfstring(ptr noundef %0, ptr noundef nonnull @.str.19, ptr noundef %18) #9
  %20 = sext i32 %17 to i64
  tail call void @lua_pushinteger(ptr noundef %0, i64 noundef %20) #9
  br label %pushresult.exit

pushresult.exit:                                  ; preds = %14, %15
  %.0.i = phi i32 [ 1, %14 ], [ 3, %15 ]
  ret i32 %.0.i
}